target datalayout = "e-m:e-p270:32:32-p271:32:32-p272:64:64-i64:64-i128:128-f80:128-n8:16:32:64-S128"
target triple = "x86_64-unknown-linux-gnu"

%struct.timeval = type { i64, i64 }

@trace_events_enabled_count = external global i32, align 4
@_TRACE_VIRTIO_GPU_FEATURES_DSTATE = external global i16, align 2
@message_with_timestamp = external global i8, align 1
@.str.10 = private unnamed_addr constant [43 x i8] c"%d@%zu.%06zu:virtio_gpu_features virgl %d\0A\00", align 1
@.str.11 = private unnamed_addr constant [30 x i8] c"virtio_gpu_features virgl %d\0A\00", align 1
@qemu_loglevel = external global i32, align 4

; Function Attrs: nounwind sspstrong uwtable
define internal zeroext i1 @qemu_loglevel_mask(i32 noundef %mask) #0 {
entry:
  %mask.addr = alloca i32, align 4
  store i32 %mask, ptr %mask.addr, align 4
  %0 = load i32, ptr @qemu_loglevel, align 4
  %1 = load i32, ptr %mask.addr, align 4
  %and = and i32 %0, %1
  %cmp = icmp ne i32 %and, 0
  ret i1 %cmp
}

; Function Attrs: nounwind sspstrong uwtable
define internal void @_nocheck__trace_virtio_gpu_features(i1 noundef zeroext %virgl) #0 {
entry:
  %virgl.addr = alloca i8, align 1
  %_now = alloca %struct.timeval, align 8
  %frombool = zext i1 %virgl to i8
  store i8 %frombool, ptr %virgl.addr, align 1
  %0 = load i32, ptr @trace_events_enabled_count, align 4
  %tobool = icmp ne i32 %0, 0
  %lnot = xor i1 %tobool, true
  %lnot1 = xor i1 %lnot, true
  %lnot.ext = zext i1 %lnot1 to i32
  %conv = sext i32 %lnot.ext to i64
  %tobool2 = icmp ne i64 %conv, 0
  br i1 %tobool2, label %land.lhs.true, label %if.end15

land.lhs.true:                                    ; preds = %entry
  %1 = load i16, ptr @_TRACE_VIRTIO_GPU_FEATURES_DSTATE, align 2
  %conv3 = zext i16 %1 to i32
  %tobool4 = icmp ne i32 %conv3, 0
  br i1 %tobool4, label %land.lhs.true5, label %if.end15

land.lhs.true5:                                   ; preds = %land.lhs.true
  %call = call zeroext i1 @qemu_loglevel_mask(i32 noundef 32768)
  br i1 %call, label %if.then, label %if.end15

if.then:                                          ; preds = %land.lhs.true5
  %2 = load i8, ptr @message_with_timestamp, align 1
  %tobool7 = trunc i8 %2 to i1
  br i1 %tobool7, label %if.then8, label %if.else

if.then8:                                         ; preds = %if.then
  %call9 = call i32 @gettimeofday(ptr noundef %_now, ptr noundef null) #5
  %call10 = call i32 @qemu_get_thread_id()
  %tv_sec = getelementptr inbounds %struct.timeval, ptr %_now, i32 0, i32 0
  %3 = load i64, ptr %tv_sec, align 8
  %tv_usec = getelementptr inbounds %struct.timeval, ptr %_now, i32 0, i32 1
  %4 = load i64, ptr %tv_usec, align 8
  %5 = load i8, ptr %virgl.addr, align 1
  %tobool11 = trunc i8 %5 to i1
  %conv12 = zext i1 %tobool11 to i32
  call void (ptr, ...) @qemu_log(ptr noundef @.str.10, i32 noundef %call10, i64 noundef %3, i64 noundef %4, i32 noundef %conv12)
  br label %if.end

if.else:                                          ; preds = %if.then
  %6 = load i8, ptr %virgl.addr, align 1
  %tobool13 = trunc i8 %6 to i1
  %conv14 = zext i1 %tobool13 to i32
  call void (ptr, ...) @qemu_log(ptr noundef @.str.11, i32 noundef %conv14)
  br label %if.end

if.end:                                           ; preds = %if.else, %if.then8
  br label %if.end15

if.end15:                                         ; preds = %if.end, %land.lhs.true5, %land.lhs.true, %entry
  ret void
}

; Function Attrs: nounwind sspstrong uwtable
define internal void @trace_virtio_gpu_features(i1 noundef zeroext %virgl) #0 {
entry:
  %virgl.addr = alloca i8, align 1
  %frombool = zext i1 %virgl to i8
  store i8 %frombool, ptr %virgl.addr, align 1
  %0 = load i8, ptr %virgl.addr, align 1
  %tobool = trunc i8 %0 to i1
  call void @_nocheck__trace_virtio_gpu_features(i1 noundef zeroext %tobool)
  ret void
}

; Function Attrs: nounwind sspstrong uwtable
define internal void @virtio_gpu_base_set_features(ptr noundef %vdev, i64 noundef %features) #0 {
entry:
  %vdev.addr = alloca ptr, align 8
  %features.addr = alloca i64, align 8
  store ptr %vdev, ptr %vdev.addr, align 8
  store i64 %features, ptr %features.addr, align 8
  %0 = load i64, ptr %features.addr, align 8
  %and = and i64 %0, 1
  %cmp = icmp eq i64 %and, 1
  call void @trace_virtio_gpu_features(i1 noundef zeroext %cmp)
  ret void
}