; Function Attrs: nounwind sspstrong uwtable
define internal void @virtio_gpu_base_set_features(ptr readnone captures(none) %vdev, i64 noundef %features) #1 {
entry:
  %_now.i.i = alloca %struct.timeval, align 8
  %and = and i64 %features, 1
  call void @llvm.lifetime.start.p0(i64 16, ptr nonnull %_now.i.i)
  %0 = load i32, ptr @trace_events_enabled_count, align 4
  %tobool.i.i = icmp ne i32 %0, 0
  %1 = load i16, ptr @_TRACE_VIRTIO_GPU_FEATURES_DSTATE, align 2
  %tobool4.i.i = icmp ne i16 %1, 0
  %or.cond.i.i = select i1 %tobool.i.i, i1 %tobool4.i.i, i1 false
  br i1 %or.cond.i.i, label %land.lhs.true5.i.i, label %trace_virtio_gpu_features.exit

land.lhs.true5.i.i:                               ; preds = %entry
  %2 = load i32, ptr @qemu_loglevel, align 4
  %and.i.i.i = and i32 %2, 32768
  %cmp.i.not.i.i = icmp eq i32 %and.i.i.i, 0
  br i1 %cmp.i.not.i.i, label %trace_virtio_gpu_features.exit, label %if.then.i.i

if.then.i.i:                                      ; preds = %land.lhs.true5.i.i
  %3 = load i8, ptr @message_with_timestamp, align 1
  %tobool7.i.i = trunc i8 %3 to i1
  br i1 %tobool7.i.i, label %if.then8.i.i, label %if.else.i.i

if.then8.i.i:                                     ; preds = %if.then.i.i
  %call9.i.i = call i32 @gettimeofday(ptr noundef nonnull %_now.i.i, ptr noundef null) #9
  %call10.i.i = tail call i32 @qemu_get_thread_id() #9
  %4 = load i64, ptr %_now.i.i, align 8
  %tv_usec.i.i = getelementptr inbounds nuw i8, ptr %_now.i.i, i64 8
  %5 = load i64, ptr %tv_usec.i.i, align 8
  %conv12.i.i = trunc nuw nsw i64 %and to i32
  tail call void (ptr, ...) @qemu_log(ptr noundef nonnull @.str.10, i32 noundef %call10.i.i, i64 noundef %4, i64 noundef %5, i32 noundef %conv12.i.i) #9
  br label %trace_virtio_gpu_features.exit

if.else.i.i:                                      ; preds = %if.then.i.i
  %conv14.i.i = trunc nuw nsw i64 %and to i32
  tail call void (ptr, ...) @qemu_log(ptr noundef nonnull @.str.11, i32 noundef %conv14.i.i) #9
  br label %trace_virtio_gpu_features.exit

trace_virtio_gpu_features.exit:                   ; preds = %entry, %land.lhs.true5.i.i, %if.then8.i.i, %if.else.i.i
  call void @llvm.lifetime.end.p0(i64 16, ptr nonnull %_now.i.i)
  ret void
}